target datalayout = "e-m:e-p270:32:32-p271:32:32-p272:64:64-i64:64-i128:128-f80:128-n8:16:32:64-S128"
target triple = "x86_64-pc-linux-gnu"

%struct._ProcessHandler = type { ptr, ptr, ptr, i32, i32, ptr }

@__const.doDrawPath.hnd = private unnamed_addr constant %struct._ProcessHandler { ptr @ProcessFixedLine, ptr null, ptr null, i32 1, i32 0, ptr null }, align 8

; Function Attrs: nounwind uwtable
define zeroext i8 @doDrawPath(ptr noundef %0, ptr noundef %1, i32 noundef %2, i32 noundef %3, ptr noundef %4, i32 noundef %5, ptr noundef %6, i32 noundef %7, i32 noundef %8) #0 {
  %10 = alloca ptr, align 8
  %11 = alloca ptr, align 8
  %12 = alloca i32, align 4
  %13 = alloca i32, align 4
  %14 = alloca ptr, align 8
  %15 = alloca i32, align 4
  %16 = alloca ptr, align 8
  %17 = alloca i32, align 4
  %18 = alloca i32, align 4
  %19 = alloca %struct._ProcessHandler, align 8
  store ptr %0, ptr %10, align 8
  store ptr %1, ptr %11, align 8
  store i32 %2, ptr %12, align 4
  store i32 %3, ptr %13, align 4
  store ptr %4, ptr %14, align 8
  store i32 %5, ptr %15, align 4
  store ptr %6, ptr %16, align 8
  store i32 %7, ptr %17, align 4
  store i32 %8, ptr %18, align 4
  call void @llvm.memcpy.p0.p0.i64(ptr align 8 %19, ptr align 8 @__const.doDrawPath.hnd, i64 40, i1 false)
  %20 = load ptr, ptr %10, align 8
  %21 = getelementptr inbounds %struct._ProcessHandler, ptr %19, i32 0, i32 2
  store ptr %20, ptr %21, align 8
  %22 = load i32, ptr %18, align 4
  %23 = getelementptr inbounds %struct._ProcessHandler, ptr %19, i32 0, i32 3
  store i32 %22, ptr %23, align 8
  %24 = load ptr, ptr %11, align 8
  %25 = icmp eq ptr %24, null
  br i1 %25, label %26, label %27

26:                                               ; preds = %9
  br label %29

27:                                               ; preds = %9
  %28 = load ptr, ptr %11, align 8
  br label %29

29:                                               ; preds = %27, %26
  %30 = phi ptr [ @stubEndSubPath, %26 ], [ %28, %27 ]
  %31 = getelementptr inbounds %struct._ProcessHandler, ptr %19, i32 0, i32 1
  store ptr %30, ptr %31, align 8
  %32 = load i32, ptr %12, align 4
  %33 = sitofp i32 %32 to float
  %34 = load i32, ptr %13, align 4
  %35 = sitofp i32 %34 to float
  %36 = load ptr, ptr %14, align 8
  %37 = load i32, ptr %15, align 4
  %38 = load ptr, ptr %16, align 8
  %39 = load i32, ptr %17, align 4
  %40 = call zeroext i8 @ProcessPath(ptr noundef %19, float noundef %33, float noundef %35, ptr noundef %36, i32 noundef %37, ptr noundef %38, i32 noundef %39)
  ret i8 %40
}