; Function Attrs: nounwind uwtable
define zeroext range(i8 0, 2) i8 @doDrawPath(ptr noundef %0, ptr noundef %1, i32 noundef %2, i32 noundef %3, ptr nocapture noundef readonly %4, i32 noundef %5, ptr nocapture noundef readonly %6, i32 noundef %7, i32 noundef %8) local_unnamed_addr #0 {
  %10 = alloca %struct._ProcessHandler, align 8
  call void @llvm.memcpy.p0.p0.i64(ptr noundef nonnull align 8 dereferenceable(40) %10, ptr noundef nonnull align 8 dereferenceable(40) @__const.doDrawPath.hnd, i64 40, i1 false)
  %11 = getelementptr inbounds i8, ptr %10, i64 16
  store ptr %0, ptr %11, align 8
  %12 = getelementptr inbounds i8, ptr %10, i64 24
  store i32 %8, ptr %12, align 8
  %13 = icmp eq ptr %1, null
  %14 = select i1 %13, ptr @stubEndSubPath, ptr %1
  %15 = getelementptr inbounds i8, ptr %10, i64 8
  store ptr %14, ptr %15, align 8
  %16 = sitofp i32 %2 to float
  %17 = sitofp i32 %3 to float
  %18 = call zeroext i8 @ProcessPath(ptr noundef nonnull %10, float noundef %16, float noundef %17, ptr noundef %4, i32 noundef %5, ptr noundef %6, i32 noundef %7)
  ret i8 %18
}